; Function Attrs: mustprogress uwtable
define hidden void @_ZN3smt17theory_array_base12pop_scope_ehEj(ptr noundef nonnull align 8 dereferenceable(249) %this, i32 noundef %num_scopes) unnamed_addr #3 align 2 {
entry:
  %m_axiom1_todo.i = getelementptr inbounds i8, ptr %this, i64 72
  %0 = load ptr, ptr %m_axiom1_todo.i, align 8
  %tobool.not.i.i = icmp eq ptr %0, null
  br i1 %tobool.not.i.i, label %_ZN6vectorIPN3smt5enodeELb0EjE5resetEv.exit.i, label %if.then.i.i

if.then.i.i:                                      ; preds = %entry
  %arrayidx.i.i = getelementptr inbounds i8, ptr %0, i64 -4
  store i32 0, ptr %arrayidx.i.i, align 4
  br label %_ZN6vectorIPN3smt5enodeELb0EjE5resetEv.exit.i

_ZN6vectorIPN3smt5enodeELb0EjE5resetEv.exit.i:    ; preds = %if.then.i.i, %entry
  %m_axiom2_todo.i = getelementptr inbounds i8, ptr %this, i64 80
  %1 = load ptr, ptr %m_axiom2_todo.i, align 8
  %tobool.not.i1.i = icmp eq ptr %1, null
  br i1 %tobool.not.i1.i, label %_ZN6vectorISt4pairIPN3smt5enodeES3_ELb0EjE5resetEv.exit.i, label %if.then.i2.i

if.then.i2.i:                                     ; preds = %_ZN6vectorIPN3smt5enodeELb0EjE5resetEv.exit.i
  %arrayidx.i3.i = getelementptr inbounds i8, ptr %1, i64 -4
  store i32 0, ptr %arrayidx.i3.i, align 4
  br label %_ZN6vectorISt4pairIPN3smt5enodeES3_ELb0EjE5resetEv.exit.i

_ZN6vectorISt4pairIPN3smt5enodeES3_ELb0EjE5resetEv.exit.i: ; preds = %if.then.i2.i, %_ZN6vectorIPN3smt5enodeELb0EjE5resetEv.exit.i
  %m_extensionality_todo.i = getelementptr inbounds i8, ptr %this, i64 88
  %2 = load ptr, ptr %m_extensionality_todo.i, align 8
  %tobool.not.i4.i = icmp eq ptr %2, null
  br i1 %tobool.not.i4.i, label %_ZN6vectorISt4pairIPN3smt5enodeES3_ELb0EjE5resetEv.exit7.i, label %if.then.i5.i

if.then.i5.i:                                     ; preds = %_ZN6vectorISt4pairIPN3smt5enodeES3_ELb0EjE5resetEv.exit.i
  %arrayidx.i6.i = getelementptr inbounds i8, ptr %2, i64 -4
  store i32 0, ptr %arrayidx.i6.i, align 4
  br label %_ZN6vectorISt4pairIPN3smt5enodeES3_ELb0EjE5resetEv.exit7.i

_ZN6vectorISt4pairIPN3smt5enodeES3_ELb0EjE5resetEv.exit7.i: ; preds = %if.then.i5.i, %_ZN6vectorISt4pairIPN3smt5enodeES3_ELb0EjE5resetEv.exit.i
  %m_congruent_todo.i = getelementptr inbounds i8, ptr %this, i64 96
  %3 = load ptr, ptr %m_congruent_todo.i, align 8
  %tobool.not.i8.i = icmp eq ptr %3, null
  br i1 %tobool.not.i8.i, label %_ZN3smt17theory_array_base12reset_queuesEv.exit, label %if.then.i9.i

if.then.i9.i:                                     ; preds = %_ZN6vectorISt4pairIPN3smt5enodeES3_ELb0EjE5resetEv.exit7.i
  %arrayidx.i10.i = getelementptr inbounds i8, ptr %3, i64 -4
  store i32 0, ptr %arrayidx.i10.i, align 4
  br label %_ZN3smt17theory_array_base12reset_queuesEv.exit

_ZN3smt17theory_array_base12reset_queuesEv.exit:  ; preds = %_ZN6vectorISt4pairIPN3smt5enodeES3_ELb0EjE5resetEv.exit7.i, %if.then.i9.i
  %m_scopes = getelementptr inbounds i8, ptr %this, i64 168
  %4 = load ptr, ptr %m_scopes, align 8
  %cmp.i = icmp eq ptr %4, null
  br i1 %cmp.i, label %_ZNK6vectorIN3smt17theory_array_base5scopeELb0EjE4sizeEv.exit, label %if.end.i

if.end.i:                                         ; preds = %_ZN3smt17theory_array_base12reset_queuesEv.exit
  %arrayidx.i = getelementptr inbounds i8, ptr %4, i64 -4
  %5 = load i32, ptr %arrayidx.i, align 4
  br label %_ZNK6vectorIN3smt17theory_array_base5scopeELb0EjE4sizeEv.exit

_ZNK6vectorIN3smt17theory_array_base5scopeELb0EjE4sizeEv.exit: ; preds = %_ZN3smt17theory_array_base12reset_queuesEv.exit, %if.end.i
  %retval.0.i = phi i32 [ %5, %if.end.i ], [ 0, %_ZN3smt17theory_array_base12reset_queuesEv.exit ]
  %sub = sub i32 %retval.0.i, %num_scopes
  %idxprom.i = zext i32 %sub to i64
  %arrayidx.i3 = getelementptr inbounds %"struct.smt::theory_array_base::scope", ptr %4, i64 %idxprom.i
  %6 = load i32, ptr %arrayidx.i3, align 4
  tail call void @_ZN3smt17theory_array_base13restore_sortsEj(ptr noundef nonnull align 8 dereferenceable(249) %this, i32 noundef %6)
  %7 = load ptr, ptr %m_scopes, align 8
  %cmp.i4 = icmp eq ptr %7, null
  br i1 %cmp.i4, label %_ZN6vectorIN3smt17theory_array_base5scopeELb0EjE6shrinkEj.exit, label %if.then.i

if.then.i:                                        ; preds = %_ZNK6vectorIN3smt17theory_array_base5scopeELb0EjE4sizeEv.exit
  %arrayidx.i6 = getelementptr inbounds i8, ptr %7, i64 -4
  %8 = load i32, ptr %arrayidx.i6, align 4
  %sub7 = sub i32 %8, %num_scopes
  store i32 %sub7, ptr %arrayidx.i6, align 4
  br label %_ZN6vectorIN3smt17theory_array_base5scopeELb0EjE6shrinkEj.exit

_ZN6vectorIN3smt17theory_array_base5scopeELb0EjE6shrinkEj.exit: ; preds = %_ZNK6vectorIN3smt17theory_array_base5scopeELb0EjE4sizeEv.exit, %if.then.i
  tail call void @_ZN3smt6theory12pop_scope_ehEj(ptr noundef nonnull align 8 dereferenceable(53) %this, i32 noundef %num_scopes)
  ret void
}